; Function Attrs: mustprogress uwtable
define hidden noundef zeroext i1 @_ZN4cvc58internal6theory7strings4Word23hasBidirectionalOverlapENS0_12NodeTemplateILb0EEES5_(ptr noundef readonly captures(none) %0, ptr noundef readonly captures(none) %1) local_unnamed_addr #3 align 2 personality ptr @__gxx_personality_v0 {
  %3 = alloca %"class.cvc5::internal::NodeTemplate.85", align 8
  %4 = alloca %"class.cvc5::internal::NodeTemplate.85", align 8
  %5 = alloca %"class.cvc5::internal::NodeTemplate.85", align 8
  %6 = alloca %"class.cvc5::internal::NodeTemplate.85", align 8
  %7 = load ptr, ptr %0, align 8, !tbaa !28
  store ptr %7, ptr %3, align 8, !tbaa !28
  %8 = load ptr, ptr %1, align 8, !tbaa !28
  store ptr %8, ptr %4, align 8, !tbaa !28
  %9 = call noundef zeroext i1 @_ZN4cvc58internal6theory7strings4Word10hasOverlapENS0_12NodeTemplateILb0EEES5_b(ptr noundef nonnull %3, ptr noundef nonnull %4, i1 noundef zeroext false)
  br i1 %9, label %.critedge, label %10

10:                                               ; preds = %2
  %11 = load ptr, ptr %1, align 8, !tbaa !28
  store ptr %11, ptr %5, align 8, !tbaa !28
  %12 = load ptr, ptr %0, align 8, !tbaa !28
  store ptr %12, ptr %6, align 8, !tbaa !28
  %13 = call noundef zeroext i1 @_ZN4cvc58internal6theory7strings4Word10hasOverlapENS0_12NodeTemplateILb0EEES5_b(ptr noundef nonnull %5, ptr noundef nonnull %6, i1 noundef zeroext false)
  br label %.critedge

.critedge:                                        ; preds = %10, %2
  %14 = phi i1 [ %13, %10 ], [ true, %2 ]
  ret i1 %14
}